target datalayout = "e-m:e-p270:32:32-p271:32:32-p272:64:64-i64:64-i128:128-f80:128-n8:16:32:64-S128"
target triple = "x86_64-pc-linux-gnu"

%"class.icu_77::MaybeStackArray" = type <{ ptr, i32, i8, [40 x i8], [3 x i8] }>
%"class.icu_77::CharString" = type { %"class.icu_77::MaybeStackArray", i32, [4 x i8] }
%"class.icu_77::MeasureUnitImpl" = type { i32, %"class.icu_77::MaybeStackVector", %"class.icu_77::CharString", i64 }
%"class.icu_77::MaybeStackVector" = type { %"class.icu_77::MemoryPool" }
%"class.icu_77::MemoryPool" = type { i32, %"class.icu_77::MaybeStackArray.0" }
%"class.icu_77::MaybeStackArray.0" = type { ptr, i32, i8, [8 x ptr] }
%"struct.icu_77::SingleUnitImpl" = type { i32, i32, i32 }

@_ZN6icu_7712_GLOBAL__N_112gSimpleUnitsE = internal global ptr null, align 8
@_ZN6icu_7715MaybeStackArrayIcLi40EEC1Ev = weak_odr unnamed_addr alias void (ptr), ptr @_ZN6icu_7715MaybeStackArrayIcLi40EEC2Ev

; Function Attrs: mustprogress nounwind uwtable
define linkonce_odr void @_ZN6icu_7715MaybeStackArrayIPNS_14SingleUnitImplELi8EEC2Ev(ptr noundef nonnull align 8 dereferenceable(80) %0) unnamed_addr #0 comdat align 2 {
  %2 = alloca ptr, align 8
  store ptr %0, ptr %2, align 8, !tbaa !180
  %3 = load ptr, ptr %2, align 8
  %4 = getelementptr inbounds nuw %"class.icu_77::MaybeStackArray.0", ptr %3, i32 0, i32 0
  %5 = getelementptr inbounds nuw %"class.icu_77::MaybeStackArray.0", ptr %3, i32 0, i32 3
  %6 = getelementptr inbounds [8 x ptr], ptr %5, i64 0, i64 0
  store ptr %6, ptr %4, align 8, !tbaa !182
  %7 = getelementptr inbounds nuw %"class.icu_77::MaybeStackArray.0", ptr %3, i32 0, i32 1
  store i32 8, ptr %7, align 8, !tbaa !183
  %8 = getelementptr inbounds nuw %"class.icu_77::MaybeStackArray.0", ptr %3, i32 0, i32 2
  store i8 0, ptr %8, align 4, !tbaa !184
  ret void
}

; Function Attrs: mustprogress nounwind uwtable
define weak_odr noundef nonnull align 1 dereferenceable(1) ptr @_ZN6icu_7715MaybeStackArrayIcLi40EEixEl(ptr noundef nonnull align 8 dereferenceable(53) %0, i64 noundef %1) #0 comdat align 2 {
  %3 = alloca ptr, align 8
  %4 = alloca i64, align 8
  store ptr %0, ptr %3, align 8, !tbaa !3
  store i64 %1, ptr %4, align 8, !tbaa !18
  %5 = load ptr, ptr %3, align 8
  %6 = getelementptr inbounds nuw %"class.icu_77::MaybeStackArray", ptr %5, i32 0, i32 0
  %7 = load ptr, ptr %6, align 8, !tbaa !8
  %8 = load i64, ptr %4, align 8, !tbaa !18
  %9 = getelementptr inbounds i8, ptr %7, i64 %8
  ret ptr %9
}

; Function Attrs: mustprogress uwtable
define linkonce_odr void @_ZN6icu_7710MemoryPoolINS_14SingleUnitImplELi8EEC2Ev(ptr noundef nonnull align 8 dereferenceable(88) %0) unnamed_addr #1 comdat align 2 {
  %2 = alloca ptr, align 8
  store ptr %0, ptr %2, align 8, !tbaa !95
  %3 = load ptr, ptr %2, align 8
  %4 = getelementptr inbounds nuw %"class.icu_77::MemoryPool", ptr %3, i32 0, i32 0
  store i32 0, ptr %4, align 8, !tbaa !93
  %5 = getelementptr inbounds nuw %"class.icu_77::MemoryPool", ptr %3, i32 0, i32 1
  call void @_ZN6icu_7715MaybeStackArrayIPNS_14SingleUnitImplELi8EEC2Ev(ptr noundef nonnull align 8 dereferenceable(80) %5)
  ret void
}

; Function Attrs: mustprogress nounwind uwtable
define linkonce_odr noundef nonnull align 8 dereferenceable(8) ptr @_ZN6icu_7715MaybeStackArrayIPNS_14SingleUnitImplELi8EEixEl(ptr noundef nonnull align 8 dereferenceable(80) %0, i64 noundef %1) #0 comdat align 2 {
  %3 = alloca ptr, align 8
  %4 = alloca i64, align 8
  store ptr %0, ptr %3, align 8, !tbaa !180
  store i64 %1, ptr %4, align 8, !tbaa !18
  %5 = load ptr, ptr %3, align 8
  %6 = getelementptr inbounds nuw %"class.icu_77::MaybeStackArray.0", ptr %5, i32 0, i32 0
  %7 = load ptr, ptr %6, align 8, !tbaa !182
  %8 = load i64, ptr %4, align 8, !tbaa !18
  %9 = getelementptr inbounds ptr, ptr %7, i64 %8
  ret ptr %9
}

; Function Attrs: mustprogress nounwind uwtable
define linkonce_odr noundef nonnull align 8 dereferenceable(8) ptr @_ZNK6icu_7715MaybeStackArrayIPNS_14SingleUnitImplELi8EEixEl(ptr noundef nonnull align 8 dereferenceable(80) %0, i64 noundef %1) #0 comdat align 2 {
  %3 = alloca ptr, align 8
  %4 = alloca i64, align 8
  store ptr %0, ptr %3, align 8, !tbaa !180
  store i64 %1, ptr %4, align 8, !tbaa !18
  %5 = load ptr, ptr %3, align 8
  %6 = getelementptr inbounds nuw %"class.icu_77::MaybeStackArray.0", ptr %5, i32 0, i32 0
  %7 = load ptr, ptr %6, align 8, !tbaa !182
  %8 = load i64, ptr %4, align 8, !tbaa !18
  %9 = getelementptr inbounds ptr, ptr %7, i64 %8
  ret ptr %9
}

; Function Attrs: mustprogress uwtable
define linkonce_odr void @_ZN6icu_7710CharStringC2Ev(ptr noundef nonnull align 8 dereferenceable(60) %0) unnamed_addr #1 comdat align 2 {
  %2 = alloca ptr, align 8
  store ptr %0, ptr %2, align 8, !tbaa !32
  %3 = load ptr, ptr %2, align 8
  %4 = getelementptr inbounds nuw %"class.icu_77::CharString", ptr %3, i32 0, i32 0
  call void @_ZN6icu_7715MaybeStackArrayIcLi40EEC1Ev(ptr noundef nonnull align 8 dereferenceable(53) %4)
  %5 = getelementptr inbounds nuw %"class.icu_77::CharString", ptr %3, i32 0, i32 1
  store i32 0, ptr %5, align 8, !tbaa !34
  %6 = getelementptr inbounds nuw %"class.icu_77::CharString", ptr %3, i32 0, i32 0
  %7 = call noundef nonnull align 1 dereferenceable(1) ptr @_ZN6icu_7715MaybeStackArrayIcLi40EEixEl(ptr noundef nonnull align 8 dereferenceable(53) %6, i64 noundef 0)
  store i8 0, ptr %7, align 1, !tbaa !36
  ret void
}

; Function Attrs: inlinehint mustprogress uwtable
define linkonce_odr void @_ZN6icu_7716MaybeStackVectorINS_14SingleUnitImplELi8EEC2Ev(ptr noundef nonnull align 8 dereferenceable(88) %0) unnamed_addr #3 comdat align 2 {
  %2 = alloca ptr, align 8
  store ptr %0, ptr %2, align 8, !tbaa !91
  %3 = load ptr, ptr %2, align 8
  call void @_ZN6icu_7710MemoryPoolINS_14SingleUnitImplELi8EEC2Ev(ptr noundef nonnull align 8 dereferenceable(88) %3)
  ret void
}

; Function Attrs: mustprogress nounwind uwtable
define noundef ptr @_ZNK6icu_7714SingleUnitImpl15getSimpleUnitIDEv(ptr noundef nonnull align 4 dereferenceable(12) %0) #0 align 2 {
  %2 = alloca ptr, align 8
  store ptr %0, ptr %2, align 8, !tbaa !79
  %3 = load ptr, ptr %2, align 8
  %4 = load ptr, ptr @_ZN6icu_7712_GLOBAL__N_112gSimpleUnitsE, align 8, !tbaa !51
  %5 = getelementptr inbounds nuw %"struct.icu_77::SingleUnitImpl", ptr %3, i32 0, i32 0
  %6 = load i32, ptr %5, align 4, !tbaa !86
  %7 = sext i32 %6 to i64
  %8 = getelementptr inbounds ptr, ptr %4, i64 %7
  %9 = load ptr, ptr %8, align 8, !tbaa !17
  ret ptr %9
}

; Function Attrs: mustprogress nounwind uwtable
define linkonce_odr noundef ptr @_ZN6icu_7716MaybeStackVectorINS_14SingleUnitImplELi8EEixEl(ptr noundef nonnull align 8 dereferenceable(88) %0, i64 noundef %1) #0 comdat align 2 {
  %3 = alloca ptr, align 8
  %4 = alloca i64, align 8
  store ptr %0, ptr %3, align 8, !tbaa !91
  store i64 %1, ptr %4, align 8, !tbaa !18
  %5 = load ptr, ptr %3, align 8
  %6 = getelementptr inbounds nuw %"class.icu_77::MemoryPool", ptr %5, i32 0, i32 1
  %7 = load i64, ptr %4, align 8, !tbaa !18
  %8 = call noundef nonnull align 8 dereferenceable(8) ptr @_ZN6icu_7715MaybeStackArrayIPNS_14SingleUnitImplELi8EEixEl(ptr noundef nonnull align 8 dereferenceable(80) %6, i64 noundef %7)
  %9 = load ptr, ptr %8, align 8, !tbaa !79
  ret ptr %9
}

; Function Attrs: mustprogress uwtable
define linkonce_odr noundef ptr @_ZNK6icu_7716MaybeStackVectorINS_14SingleUnitImplELi8EEixEl(ptr noundef nonnull align 8 dereferenceable(88) %0, i64 noundef %1) #1 comdat align 2 {
  %3 = alloca ptr, align 8
  %4 = alloca i64, align 8
  store ptr %0, ptr %3, align 8, !tbaa !91
  store i64 %1, ptr %4, align 8, !tbaa !18
  %5 = load ptr, ptr %3, align 8
  %6 = getelementptr inbounds nuw %"class.icu_77::MemoryPool", ptr %5, i32 0, i32 1
  %7 = load i64, ptr %4, align 8, !tbaa !18
  %8 = call noundef nonnull align 8 dereferenceable(8) ptr @_ZNK6icu_7715MaybeStackArrayIPNS_14SingleUnitImplELi8EEixEl(ptr noundef nonnull align 8 dereferenceable(80) %6, i64 noundef %7)
  %9 = load ptr, ptr %8, align 8, !tbaa !79
  ret ptr %9
}

; Function Attrs: mustprogress nounwind uwtable
define linkonce_odr noundef i32 @_ZNK6icu_7716MaybeStackVectorINS_14SingleUnitImplELi8EE6lengthEv(ptr noundef nonnull align 8 dereferenceable(88) %0) #0 comdat align 2 {
  %2 = alloca ptr, align 8
  store ptr %0, ptr %2, align 8, !tbaa !91
  %3 = load ptr, ptr %2, align 8
  %4 = getelementptr inbounds nuw %"class.icu_77::MemoryPool", ptr %3, i32 0, i32 0
  %5 = load i32, ptr %4, align 8, !tbaa !93
  ret i32 %5
}

; Function Attrs: mustprogress uwtable
define linkonce_odr void @_ZN6icu_7715MeasureUnitImplC2Ev(ptr noundef nonnull align 8 dereferenceable(168) %0) unnamed_addr #1 comdat align 2 personality ptr @__gxx_personality_v0 {
  %2 = alloca ptr, align 8
  %3 = alloca ptr, align 8
  %4 = alloca i32, align 4
  store ptr %0, ptr %2, align 8, !tbaa !25
  %5 = load ptr, ptr %2, align 8
  %6 = getelementptr inbounds nuw %"class.icu_77::MeasureUnitImpl", ptr %5, i32 0, i32 0
  store i32 0, ptr %6, align 8, !tbaa !67
  %7 = getelementptr inbounds nuw %"class.icu_77::MeasureUnitImpl", ptr %5, i32 0, i32 1
  call void @_ZN6icu_7716MaybeStackVectorINS_14SingleUnitImplELi8EEC2Ev(ptr noundef nonnull align 8 dereferenceable(88) %7)
  %8 = getelementptr inbounds nuw %"class.icu_77::MeasureUnitImpl", ptr %5, i32 0, i32 2
  invoke void @_ZN6icu_7710CharStringC2Ev(ptr noundef nonnull align 8 dereferenceable(60) %8)
          to label %9 unwind label %11

9:                                                ; preds = %1
  %10 = getelementptr inbounds nuw %"class.icu_77::MeasureUnitImpl", ptr %5, i32 0, i32 3
  store i64 0, ptr %10, align 8, !tbaa !60
  ret void

11:                                               ; preds = %1
  %12 = landingpad { ptr, i32 }
          cleanup
  %13 = extractvalue { ptr, i32 } %12, 0
  store ptr %13, ptr %3, align 8
  %14 = extractvalue { ptr, i32 } %12, 1
  store i32 %14, ptr %4, align 4
  call void @_ZN6icu_7710MemoryPoolINS_14SingleUnitImplELi8EED2Ev(ptr noundef nonnull align 8 dereferenceable(88) %7) #14
  br label %15

15:                                               ; preds = %11
  %16 = load ptr, ptr %3, align 8
  %17 = load i32, ptr %4, align 4
  %18 = insertvalue { ptr, i32 } poison, ptr %16, 0
  %19 = insertvalue { ptr, i32 } %18, i32 %17, 1
  resume { ptr, i32 } %19
}

; Function Attrs: mustprogress uwtable
define void @_ZNK6icu_7715MeasureUnitImpl15copyAndSimplifyER10UErrorCode(ptr dead_on_unwind noalias writable sret(%"class.icu_77::MeasureUnitImpl") align 8 %0, ptr noundef nonnull align 8 dereferenceable(168) %1, ptr noundef nonnull align 4 dereferenceable(4) %2) #1 align 2 personality ptr @__gxx_personality_v0 {
  %4 = alloca ptr, align 8
  %5 = alloca ptr, align 8
  %6 = alloca ptr, align 8
  %7 = alloca i1, align 1
  %8 = alloca i32, align 4
  %9 = alloca ptr, align 8
  %10 = alloca i32, align 4
  %11 = alloca i32, align 4
  %12 = alloca ptr, align 8
  %13 = alloca i8, align 1
  %14 = alloca i32, align 4
  store ptr %0, ptr %4, align 8
  store ptr %1, ptr %5, align 8, !tbaa !25
  store ptr %2, ptr %6, align 8, !tbaa !22
  %15 = load ptr, ptr %5, align 8
  store i1 false, ptr %7, align 1
  call void @_ZN6icu_7715MeasureUnitImplC2Ev(ptr noundef nonnull align 8 dereferenceable(168) %0)
  call void @llvm.lifetime.start.p0(i64 4, ptr %8) #14
  store i32 0, ptr %8, align 4, !tbaa !14
  br label %16

16:                                               ; preds = %107, %3
  %17 = load i32, ptr %8, align 4, !tbaa !14
  %18 = getelementptr inbounds nuw %"class.icu_77::MeasureUnitImpl", ptr %15, i32 0, i32 1
  %19 = invoke noundef i32 @_ZNK6icu_7716MaybeStackVectorINS_14SingleUnitImplELi8EE6lengthEv(ptr noundef nonnull align 8 dereferenceable(88) %18)
          to label %20 unwind label %23

20:                                               ; preds = %16
  %21 = icmp slt i32 %17, %19
  br i1 %21, label %27, label %22

22:                                               ; preds = %20
  store i32 2, ptr %11, align 4
  call void @llvm.lifetime.end.p0(i64 4, ptr %8) #14
  br label %113

23:                                               ; preds = %16
  %24 = landingpad { ptr, i32 }
          cleanup
  %25 = extractvalue { ptr, i32 } %24, 0
  store ptr %25, ptr %9, align 8
  %26 = extractvalue { ptr, i32 } %24, 1
  store i32 %26, ptr %10, align 4
  br label %112

27:                                               ; preds = %20
  call void @llvm.lifetime.start.p0(i64 8, ptr %12) #14
  %28 = getelementptr inbounds nuw %"class.icu_77::MeasureUnitImpl", ptr %15, i32 0, i32 1
  %29 = load i32, ptr %8, align 4, !tbaa !14
  %30 = sext i32 %29 to i64
  %31 = invoke noundef ptr @_ZNK6icu_7716MaybeStackVectorINS_14SingleUnitImplELi8EEixEl(ptr noundef nonnull align 8 dereferenceable(88) %28, i64 noundef %30)
          to label %32 unwind label %40

32:                                               ; preds = %27
  store ptr %31, ptr %12, align 8, !tbaa !79
  call void @llvm.lifetime.start.p0(i64 1, ptr %13) #14
  store i8 0, ptr %13, align 1, !tbaa !68
  call void @llvm.lifetime.start.p0(i64 4, ptr %14) #14
  store i32 0, ptr %14, align 4, !tbaa !14
  br label %33

33:                                               ; preds = %90, %32
  %34 = load i32, ptr %14, align 4, !tbaa !14
  %35 = getelementptr inbounds nuw %"class.icu_77::MeasureUnitImpl", ptr %0, i32 0, i32 1
  %36 = invoke noundef i32 @_ZNK6icu_7716MaybeStackVectorINS_14SingleUnitImplELi8EE6lengthEv(ptr noundef nonnull align 8 dereferenceable(88) %35)
          to label %37 unwind label %44

37:                                               ; preds = %33
  %38 = icmp slt i32 %34, %36
  br i1 %38, label %48, label %39

39:                                               ; preds = %37
  store i32 5, ptr %11, align 4
  br label %93

40:                                               ; preds = %27
  %41 = landingpad { ptr, i32 }
          cleanup
  %42 = extractvalue { ptr, i32 } %41, 0
  store ptr %42, ptr %9, align 8
  %43 = extractvalue { ptr, i32 } %41, 1
  store i32 %43, ptr %10, align 4
  br label %111

44:                                               ; preds = %76, %71, %59, %48, %33
  %45 = landingpad { ptr, i32 }
          cleanup
  %46 = extractvalue { ptr, i32 } %45, 0
  store ptr %46, ptr %9, align 8
  %47 = extractvalue { ptr, i32 } %45, 1
  store i32 %47, ptr %10, align 4
  call void @llvm.lifetime.end.p0(i64 4, ptr %14) #14
  br label %110

48:                                               ; preds = %37
  %49 = getelementptr inbounds nuw %"class.icu_77::MeasureUnitImpl", ptr %0, i32 0, i32 1
  %50 = load i32, ptr %14, align 4, !tbaa !14
  %51 = sext i32 %50 to i64
  %52 = invoke noundef ptr @_ZN6icu_7716MaybeStackVectorINS_14SingleUnitImplELi8EEixEl(ptr noundef nonnull align 8 dereferenceable(88) %49, i64 noundef %51)
          to label %53 unwind label %44

53:                                               ; preds = %48
  %54 = call noundef ptr @_ZNK6icu_7714SingleUnitImpl15getSimpleUnitIDEv(ptr noundef nonnull align 4 dereferenceable(12) %52)
  %55 = load ptr, ptr %12, align 8, !tbaa !79
  %56 = call noundef ptr @_ZNK6icu_7714SingleUnitImpl15getSimpleUnitIDEv(ptr noundef nonnull align 4 dereferenceable(12) %55)
  %57 = call i32 @strcmp(ptr noundef %54, ptr noundef %56) #17
  %58 = icmp eq i32 %57, 0
  br i1 %58, label %59, label %89

59:                                               ; preds = %53
  %60 = getelementptr inbounds nuw %"class.icu_77::MeasureUnitImpl", ptr %0, i32 0, i32 1
  %61 = load i32, ptr %14, align 4, !tbaa !14
  %62 = sext i32 %61 to i64
  %63 = invoke noundef ptr @_ZN6icu_7716MaybeStackVectorINS_14SingleUnitImplELi8EEixEl(ptr noundef nonnull align 8 dereferenceable(88) %60, i64 noundef %62)
          to label %64 unwind label %44

64:                                               ; preds = %59
  %65 = getelementptr inbounds nuw %"struct.icu_77::SingleUnitImpl", ptr %63, i32 0, i32 1
  %66 = load i32, ptr %65, align 4, !tbaa !81
  %67 = load ptr, ptr %12, align 8, !tbaa !79
  %68 = getelementptr inbounds nuw %"struct.icu_77::SingleUnitImpl", ptr %67, i32 0, i32 1
  %69 = load i32, ptr %68, align 4, !tbaa !81
  %70 = icmp eq i32 %66, %69
  br i1 %70, label %71, label %89

71:                                               ; preds = %64
  store i8 1, ptr %13, align 1, !tbaa !68
  %72 = getelementptr inbounds nuw %"class.icu_77::MeasureUnitImpl", ptr %0, i32 0, i32 1
  %73 = load i32, ptr %14, align 4, !tbaa !14
  %74 = sext i32 %73 to i64
  %75 = invoke noundef ptr @_ZN6icu_7716MaybeStackVectorINS_14SingleUnitImplELi8EEixEl(ptr noundef nonnull align 8 dereferenceable(88) %72, i64 noundef %74)
          to label %76 unwind label %44

76:                                               ; preds = %71
  %77 = getelementptr inbounds nuw %"struct.icu_77::SingleUnitImpl", ptr %75, i32 0, i32 2
  %78 = load i32, ptr %77, align 4, !tbaa !72
  %79 = load ptr, ptr %12, align 8, !tbaa !79
  %80 = getelementptr inbounds nuw %"struct.icu_77::SingleUnitImpl", ptr %79, i32 0, i32 2
  %81 = load i32, ptr %80, align 4, !tbaa !72
  %82 = add nsw i32 %78, %81
  %83 = getelementptr inbounds nuw %"class.icu_77::MeasureUnitImpl", ptr %0, i32 0, i32 1
  %84 = load i32, ptr %14, align 4, !tbaa !14
  %85 = sext i32 %84 to i64
  %86 = invoke noundef ptr @_ZN6icu_7716MaybeStackVectorINS_14SingleUnitImplELi8EEixEl(ptr noundef nonnull align 8 dereferenceable(88) %83, i64 noundef %85)
          to label %87 unwind label %44

87:                                               ; preds = %76
  %88 = getelementptr inbounds nuw %"struct.icu_77::SingleUnitImpl", ptr %86, i32 0, i32 2
  store i32 %82, ptr %88, align 4, !tbaa !72
  store i32 5, ptr %11, align 4
  br label %93

89:                                               ; preds = %64, %53
  br label %90

90:                                               ; preds = %89
  %91 = load i32, ptr %14, align 4, !tbaa !14
  %92 = add nsw i32 %91, 1
  store i32 %92, ptr %14, align 4, !tbaa !14
  br label %33, !llvm.loop !82

93:                                               ; preds = %87, %39
  call void @llvm.lifetime.end.p0(i64 4, ptr %14) #14
  br label %94

94:                                               ; preds = %93
  %95 = load i8, ptr %13, align 1, !tbaa !68, !range !70, !noundef !71
  %96 = trunc i8 %95 to i1
  br i1 %96, label %106, label %97

97:                                               ; preds = %94
  %98 = load ptr, ptr %12, align 8, !tbaa !79
  %99 = load ptr, ptr %6, align 8, !tbaa !22
  %100 = invoke noundef zeroext i1 @_ZN6icu_7715MeasureUnitImpl16appendSingleUnitERKNS_14SingleUnitImplER10UErrorCode(ptr noundef nonnull align 8 dereferenceable(168) %0, ptr noundef nonnull align 4 dereferenceable(12) %98, ptr noundef nonnull align 4 dereferenceable(4) %99)
          to label %101 unwind label %102

101:                                              ; preds = %97
  br label %106

102:                                              ; preds = %97
  %103 = landingpad { ptr, i32 }
          cleanup
  %104 = extractvalue { ptr, i32 } %103, 0
  store ptr %104, ptr %9, align 8
  %105 = extractvalue { ptr, i32 } %103, 1
  store i32 %105, ptr %10, align 4
  br label %110

106:                                              ; preds = %101, %94
  call void @llvm.lifetime.end.p0(i64 1, ptr %13) #14
  call void @llvm.lifetime.end.p0(i64 8, ptr %12) #14
  br label %107

107:                                              ; preds = %106
  %108 = load i32, ptr %8, align 4, !tbaa !14
  %109 = add nsw i32 %108, 1
  store i32 %109, ptr %8, align 4, !tbaa !14
  br label %16, !llvm.loop !83

110:                                              ; preds = %102, %44
  call void @llvm.lifetime.end.p0(i64 1, ptr %13) #14
  br label %111

111:                                              ; preds = %110, %40
  call void @llvm.lifetime.end.p0(i64 8, ptr %12) #14
  br label %112

112:                                              ; preds = %111, %23
  call void @llvm.lifetime.end.p0(i64 4, ptr %8) #14
  call void @_ZN6icu_7715MeasureUnitImplD2Ev(ptr noundef nonnull align 8 dereferenceable(168) %0) #14
  br label %117

113:                                              ; preds = %22
  store i1 true, ptr %7, align 1
  store i32 1, ptr %11, align 4
  %114 = load i1, ptr %7, align 1
  br i1 %114, label %116, label %115

115:                                              ; preds = %113
  call void @_ZN6icu_7715MeasureUnitImplD2Ev(ptr noundef nonnull align 8 dereferenceable(168) %0) #14
  br label %116

116:                                              ; preds = %115, %113
  ret void

117:                                              ; preds = %112
  %118 = load ptr, ptr %9, align 8
  %119 = load i32, ptr %10, align 4
  %120 = insertvalue { ptr, i32 } poison, ptr %118, 0
  %121 = insertvalue { ptr, i32 } %120, i32 %119, 1
  resume { ptr, i32 } %121
}