; Function Attrs: mustprogress uwtable
define void @_ZNK6icu_7715MeasureUnitImpl15copyAndSimplifyER10UErrorCode(ptr dead_on_unwind noalias writable sret(%"class.icu_77::MeasureUnitImpl") align 8 initializes((0, 4), (8, 12)) %0, ptr noundef nonnull readonly align 8 captures(none) dereferenceable(168) %1, ptr noundef nonnull align 4 dereferenceable(4) %2) local_unnamed_addr #1 align 2 personality ptr @__gxx_personality_v0 {
  store i32 0, ptr %0, align 8, !tbaa !76
  %4 = getelementptr inbounds nuw i8, ptr %0, i64 8
  store i32 0, ptr %4, align 8, !tbaa !28
  %5 = getelementptr inbounds nuw i8, ptr %0, i64 16
  %6 = getelementptr inbounds nuw i8, ptr %0, i64 32
  store ptr %6, ptr %5, align 8, !tbaa !33
  %7 = getelementptr inbounds nuw i8, ptr %0, i64 24
  store i32 8, ptr %7, align 8, !tbaa !83
  %8 = getelementptr inbounds nuw i8, ptr %0, i64 28
  store i8 0, ptr %8, align 4, !tbaa !45
  %9 = getelementptr inbounds nuw i8, ptr %0, i64 96
  invoke void @_ZN6icu_7715MaybeStackArrayIcLi40EEC1Ev(ptr noundef nonnull align 8 dereferenceable(60) %9)
          to label %_ZN6icu_7715MeasureUnitImplC2Ev.exit unwind label %10

common.resume:                                    ; preds = %55, %10
  %common.resume.op = phi { ptr, i32 } [ %11, %10 ], [ %56, %55 ]
  resume { ptr, i32 } %common.resume.op

10:                                               ; preds = %3
  %11 = landingpad { ptr, i32 }
          cleanup
  tail call void @_ZN6icu_7710MemoryPoolINS_14SingleUnitImplELi8EED2Ev(ptr noundef nonnull align 8 dereferenceable(88) %4) #18
  br label %common.resume

_ZN6icu_7715MeasureUnitImplC2Ev.exit:             ; preds = %3
  %12 = getelementptr inbounds nuw i8, ptr %0, i64 152
  store i32 0, ptr %12, align 8, !tbaa !15
  %13 = load ptr, ptr %9, align 8, !tbaa !3
  store i8 0, ptr %13, align 1, !tbaa !17
  %14 = getelementptr inbounds nuw i8, ptr %0, i64 160
  store i64 0, ptr %14, align 8, !tbaa !81
  %15 = getelementptr inbounds nuw i8, ptr %1, i64 8
  %16 = load i32, ptr %15, align 8, !tbaa !28
  %17 = icmp sgt i32 %16, 0
  br i1 %17, label %.lr.ph25, label %._crit_edge

.lr.ph25:                                         ; preds = %_ZN6icu_7715MeasureUnitImplC2Ev.exit
  %18 = getelementptr inbounds nuw i8, ptr %1, i64 16
  br label %19

19:                                               ; preds = %.lr.ph25, %57
  %20 = phi i32 [ %16, %.lr.ph25 ], [ %58, %57 ]
  %indvars.iv28 = phi i64 [ 0, %.lr.ph25 ], [ %indvars.iv.next29, %57 ]
  %21 = load ptr, ptr %18, align 8, !tbaa !33
  %22 = getelementptr inbounds nuw ptr, ptr %21, i64 %indvars.iv28
  %23 = load ptr, ptr %22, align 8, !tbaa !34
  %24 = load i32, ptr %4, align 8, !tbaa !28
  %25 = icmp sgt i32 %24, 0
  br i1 %25, label %.lr.ph, label %.critedge

.lr.ph:                                           ; preds = %19
  %26 = load ptr, ptr %5, align 8, !tbaa !33
  %27 = load ptr, ptr @_ZN6icu_7712_GLOBAL__N_112gSimpleUnitsE, align 8, !tbaa !67
  %28 = load i32, ptr %23, align 4, !tbaa !84
  %29 = sext i32 %28 to i64
  %30 = getelementptr inbounds ptr, ptr %27, i64 %29
  %31 = load ptr, ptr %30, align 8, !tbaa !22
  %32 = getelementptr inbounds nuw i8, ptr %23, i64 4
  %wide.trip.count = zext nneg i32 %24 to i64
  br label %33

33:                                               ; preds = %.lr.ph, %53
  %indvars.iv = phi i64 [ 0, %.lr.ph ], [ %indvars.iv.next, %53 ]
  %34 = getelementptr inbounds nuw ptr, ptr %26, i64 %indvars.iv
  %35 = load ptr, ptr %34, align 8, !tbaa !34
  %36 = load i32, ptr %35, align 4, !tbaa !84
  %37 = sext i32 %36 to i64
  %38 = getelementptr inbounds ptr, ptr %27, i64 %37
  %39 = load ptr, ptr %38, align 8, !tbaa !22
  %40 = tail call i32 @strcmp(ptr noundef nonnull dereferenceable(1) %39, ptr noundef nonnull dereferenceable(1) %31) #21
  %41 = icmp eq i32 %40, 0
  br i1 %41, label %42, label %53

42:                                               ; preds = %33
  %43 = getelementptr inbounds nuw i8, ptr %35, i64 4
  %44 = load i32, ptr %43, align 4, !tbaa !85
  %45 = load i32, ptr %32, align 4, !tbaa !85
  %46 = icmp eq i32 %44, %45
  br i1 %46, label %47, label %53

47:                                               ; preds = %42
  %48 = getelementptr inbounds nuw i8, ptr %35, i64 8
  %49 = load i32, ptr %48, align 4, !tbaa !36
  %50 = getelementptr inbounds nuw i8, ptr %23, i64 8
  %51 = load i32, ptr %50, align 4, !tbaa !36
  %52 = add nsw i32 %51, %49
  store i32 %52, ptr %48, align 4, !tbaa !36
  br label %57

53:                                               ; preds = %33, %42
  %indvars.iv.next = add nuw nsw i64 %indvars.iv, 1
  %exitcond.not = icmp eq i64 %indvars.iv.next, %wide.trip.count
  br i1 %exitcond.not, label %.critedge, label %33, !llvm.loop !86

.critedge:                                        ; preds = %53, %19
  %54 = invoke noundef zeroext i1 @_ZN6icu_7715MeasureUnitImpl16appendSingleUnitERKNS_14SingleUnitImplER10UErrorCode(ptr noundef nonnull align 8 dereferenceable(168) %0, ptr noundef nonnull align 4 dereferenceable(12) %23, ptr noundef nonnull align 4 dereferenceable(4) %2)
          to label %.critedge._crit_edge unwind label %55

.critedge._crit_edge:                             ; preds = %.critedge
  %.pre = load i32, ptr %15, align 8, !tbaa !28
  br label %57

55:                                               ; preds = %.critedge
  %56 = landingpad { ptr, i32 }
          cleanup
  tail call void @_ZN6icu_7715MeasureUnitImplD2Ev(ptr noundef nonnull align 8 dereferenceable(168) %0) #18
  br label %common.resume

57:                                               ; preds = %.critedge._crit_edge, %47
  %58 = phi i32 [ %.pre, %.critedge._crit_edge ], [ %20, %47 ]
  %indvars.iv.next29 = add nuw nsw i64 %indvars.iv28, 1
  %59 = sext i32 %58 to i64
  %60 = icmp slt i64 %indvars.iv.next29, %59
  br i1 %60, label %19, label %._crit_edge, !llvm.loop !87

._crit_edge:                                      ; preds = %57, %_ZN6icu_7715MeasureUnitImplC2Ev.exit
  ret void
}